; ModuleID = '27/1418.c'
source_filename = "27/1418.c"
target datalayout = "e-m:e-p270:32:32-p271:32:32-p272:64:64-i64:64-f80:128-n8:16:32:64-S128"
target triple = "x86_64-pc-linux-gnu"

@.str = private unnamed_addr constant [3 x i8] c"%d\00", align 1
@.str.1 = private unnamed_addr constant [10 x i8] c"%lf%lf%lf\00", align 1
@.str.2 = private unnamed_addr constant [19 x i8] c"x1=%.5lf;x2=%.5lf\0A\00", align 1
@.str.3 = private unnamed_addr constant [13 x i8] c"x1=x2=%.5lf\0A\00", align 1
@.str.4 = private unnamed_addr constant [34 x i8] c"x1=%.5lf+%.5lf%c;x2=%.5lf-%.5lfi\0A\00", align 1

; Function Attrs: noinline nounwind uwtable
define dso_local i32 @main() #0 {
  %1 = alloca i32, align 4
  %2 = alloca [100 x double], align 16
  %3 = alloca [100 x double], align 16
  %4 = alloca [100 x double], align 16
  %5 = alloca [100 x double], align 16
  %6 = alloca [100 x double], align 16
  %7 = alloca double, align 8
  %8 = alloca double, align 8
  %9 = alloca double, align 8
  %10 = alloca i32, align 4
  %11 = alloca i32, align 4
  %12 = alloca i8, align 1
  store i32 0, i32* %1, align 4
  store i8 105, i8* %12, align 1
  %13 = call i32 (i8*, ...) @__isoc99_scanf(i8* getelementptr inbounds ([3 x i8], [3 x i8]* @.str, i64 0, i64 0), i32* %10)
  store i32 0, i32* %11, align 4
  br label %14

14:                                               ; preds = %29, %0
  %15 = load i32, i32* %11, align 4
  %16 = load i32, i32* %10, align 4
  %17 = icmp slt i32 %15, %16
  br i1 %17, label %18, label %32

18:                                               ; preds = %14
  %19 = load i32, i32* %11, align 4
  %20 = sext i32 %19 to i64
  %21 = getelementptr inbounds [100 x double], [100 x double]* %2, i64 0, i64 %20
  %22 = load i32, i32* %11, align 4
  %23 = sext i32 %22 to i64
  %24 = getelementptr inbounds [100 x double], [100 x double]* %3, i64 0, i64 %23
  %25 = load i32, i32* %11, align 4
  %26 = sext i32 %25 to i64
  %27 = getelementptr inbounds [100 x double], [100 x double]* %4, i64 0, i64 %26
  %28 = call i32 (i8*, ...) @__isoc99_scanf(i8* getelementptr inbounds ([10 x i8], [10 x i8]* @.str.1, i64 0, i64 0), double* %21, double* %24, double* %27)
  br label %29

29:                                               ; preds = %18
  %30 = load i32, i32* %11, align 4
  %31 = add nsw i32 %30, 1
  store i32 %31, i32* %11, align 4
  br label %14

32:                                               ; preds = %14
  store i32 0, i32* %11, align 4
  br label %33

33:                                               ; preds = %256, %32
  %34 = load i32, i32* %11, align 4
  %35 = load i32, i32* %10, align 4
  %36 = icmp slt i32 %34, %35
  br i1 %36, label %37, label %259

37:                                               ; preds = %33
  %38 = load i32, i32* %11, align 4
  %39 = sext i32 %38 to i64
  %40 = getelementptr inbounds [100 x double], [100 x double]* %3, i64 0, i64 %39
  %41 = load double, double* %40, align 8
  %42 = load i32, i32* %11, align 4
  %43 = sext i32 %42 to i64
  %44 = getelementptr inbounds [100 x double], [100 x double]* %3, i64 0, i64 %43
  %45 = load double, double* %44, align 8
  %46 = fmul double %41, %45
  %47 = load i32, i32* %11, align 4
  %48 = sext i32 %47 to i64
  %49 = getelementptr inbounds [100 x double], [100 x double]* %2, i64 0, i64 %48
  %50 = load double, double* %49, align 8
  %51 = fmul double 4.000000e+00, %50
  %52 = load i32, i32* %11, align 4
  %53 = sext i32 %52 to i64
  %54 = getelementptr inbounds [100 x double], [100 x double]* %4, i64 0, i64 %53
  %55 = load double, double* %54, align 8
  %56 = fmul double %51, %55
  %57 = fsub double %46, %56
  %58 = fcmp ogt double %57, 0.000000e+00
  br i1 %58, label %59, label %141

59:                                               ; preds = %37
  %60 = load i32, i32* %11, align 4
  %61 = sext i32 %60 to i64
  %62 = getelementptr inbounds [100 x double], [100 x double]* %3, i64 0, i64 %61
  %63 = load double, double* %62, align 8
  %64 = fneg double %63
  %65 = load i32, i32* %11, align 4
  %66 = sext i32 %65 to i64
  %67 = getelementptr inbounds [100 x double], [100 x double]* %3, i64 0, i64 %66
  %68 = load double, double* %67, align 8
  %69 = load i32, i32* %11, align 4
  %70 = sext i32 %69 to i64
  %71 = getelementptr inbounds [100 x double], [100 x double]* %3, i64 0, i64 %70
  %72 = load double, double* %71, align 8
  %73 = fmul double %68, %72
  %74 = load i32, i32* %11, align 4
  %75 = sext i32 %74 to i64
  %76 = getelementptr inbounds [100 x double], [100 x double]* %2, i64 0, i64 %75
  %77 = load double, double* %76, align 8
  %78 = fmul double 4.000000e+00, %77
  %79 = load i32, i32* %11, align 4
  %80 = sext i32 %79 to i64
  %81 = getelementptr inbounds [100 x double], [100 x double]* %4, i64 0, i64 %80
  %82 = load double, double* %81, align 8
  %83 = fmul double %78, %82
  %84 = fsub double %73, %83
  %85 = call double @sqrt(double %84) #3
  %86 = fadd double %64, %85
  %87 = load i32, i32* %11, align 4
  %88 = sext i32 %87 to i64
  %89 = getelementptr inbounds [100 x double], [100 x double]* %2, i64 0, i64 %88
  %90 = load double, double* %89, align 8
  %91 = fmul double 2.000000e+00, %90
  %92 = fdiv double %86, %91
  %93 = load i32, i32* %11, align 4
  %94 = sext i32 %93 to i64
  %95 = getelementptr inbounds [100 x double], [100 x double]* %5, i64 0, i64 %94
  store double %92, double* %95, align 8
  %96 = load i32, i32* %11, align 4
  %97 = sext i32 %96 to i64
  %98 = getelementptr inbounds [100 x double], [100 x double]* %3, i64 0, i64 %97
  %99 = load double, double* %98, align 8
  %100 = fneg double %99
  %101 = load i32, i32* %11, align 4
  %102 = sext i32 %101 to i64
  %103 = getelementptr inbounds [100 x double], [100 x double]* %3, i64 0, i64 %102
  %104 = load double, double* %103, align 8
  %105 = load i32, i32* %11, align 4
  %106 = sext i32 %105 to i64
  %107 = getelementptr inbounds [100 x double], [100 x double]* %3, i64 0, i64 %106
  %108 = load double, double* %107, align 8
  %109 = fmul double %104, %108
  %110 = load i32, i32* %11, align 4
  %111 = sext i32 %110 to i64
  %112 = getelementptr inbounds [100 x double], [100 x double]* %2, i64 0, i64 %111
  %113 = load double, double* %112, align 8
  %114 = fmul double 4.000000e+00, %113
  %115 = load i32, i32* %11, align 4
  %116 = sext i32 %115 to i64
  %117 = getelementptr inbounds [100 x double], [100 x double]* %4, i64 0, i64 %116
  %118 = load double, double* %117, align 8
  %119 = fmul double %114, %118
  %120 = fsub double %109, %119
  %121 = call double @sqrt(double %120) #3
  %122 = fsub double %100, %121
  %123 = load i32, i32* %11, align 4
  %124 = sext i32 %123 to i64
  %125 = getelementptr inbounds [100 x double], [100 x double]* %2, i64 0, i64 %124
  %126 = load double, double* %125, align 8
  %127 = fmul double 2.000000e+00, %126
  %128 = fdiv double %122, %127
  %129 = load i32, i32* %11, align 4
  %130 = sext i32 %129 to i64
  %131 = getelementptr inbounds [100 x double], [100 x double]* %6, i64 0, i64 %130
  store double %128, double* %131, align 8
  %132 = load i32, i32* %11, align 4
  %133 = sext i32 %132 to i64
  %134 = getelementptr inbounds [100 x double], [100 x double]* %5, i64 0, i64 %133
  %135 = load double, double* %134, align 8
  %136 = load i32, i32* %11, align 4
  %137 = sext i32 %136 to i64
  %138 = getelementptr inbounds [100 x double], [100 x double]* %6, i64 0, i64 %137
  %139 = load double, double* %138, align 8
  %140 = call i32 (i8*, ...) @printf(i8* getelementptr inbounds ([19 x i8], [19 x i8]* @.str.2, i64 0, i64 0), double %135, double %139)
  br label %141

141:                                              ; preds = %59, %37
  %142 = load i32, i32* %11, align 4
  %143 = sext i32 %142 to i64
  %144 = getelementptr inbounds [100 x double], [100 x double]* %3, i64 0, i64 %143
  %145 = load double, double* %144, align 8
  %146 = load i32, i32* %11, align 4
  %147 = sext i32 %146 to i64
  %148 = getelementptr inbounds [100 x double], [100 x double]* %3, i64 0, i64 %147
  %149 = load double, double* %148, align 8
  %150 = fmul double %145, %149
  %151 = load i32, i32* %11, align 4
  %152 = sext i32 %151 to i64
  %153 = getelementptr inbounds [100 x double], [100 x double]* %2, i64 0, i64 %152
  %154 = load double, double* %153, align 8
  %155 = fmul double 4.000000e+00, %154
  %156 = load i32, i32* %11, align 4
  %157 = sext i32 %156 to i64
  %158 = getelementptr inbounds [100 x double], [100 x double]* %4, i64 0, i64 %157
  %159 = load double, double* %158, align 8
  %160 = fmul double %155, %159
  %161 = fsub double %150, %160
  %162 = fcmp oeq double %161, 0.000000e+00
  br i1 %162, label %163, label %176

163:                                              ; preds = %141
  %164 = load i32, i32* %11, align 4
  %165 = sext i32 %164 to i64
  %166 = getelementptr inbounds [100 x double], [100 x double]* %3, i64 0, i64 %165
  %167 = load double, double* %166, align 8
  %168 = fneg double %167
  %169 = load i32, i32* %11, align 4
  %170 = sext i32 %169 to i64
  %171 = getelementptr inbounds [100 x double], [100 x double]* %2, i64 0, i64 %170
  %172 = load double, double* %171, align 8
  %173 = fmul double 2.000000e+00, %172
  %174 = fdiv double %168, %173
  %175 = call i32 (i8*, ...) @printf(i8* getelementptr inbounds ([13 x i8], [13 x i8]* @.str.3, i64 0, i64 0), double %174)
  br label %176

176:                                              ; preds = %163, %141
  %177 = load i32, i32* %11, align 4
  %178 = sext i32 %177 to i64
  %179 = getelementptr inbounds [100 x double], [100 x double]* %3, i64 0, i64 %178
  %180 = load double, double* %179, align 8
  %181 = load i32, i32* %11, align 4
  %182 = sext i32 %181 to i64
  %183 = getelementptr inbounds [100 x double], [100 x double]* %3, i64 0, i64 %182
  %184 = load double, double* %183, align 8
  %185 = fmul double %180, %184
  %186 = load i32, i32* %11, align 4
  %187 = sext i32 %186 to i64
  %188 = getelementptr inbounds [100 x double], [100 x double]* %2, i64 0, i64 %187
  %189 = load double, double* %188, align 8
  %190 = fmul double 4.000000e+00, %189
  %191 = load i32, i32* %11, align 4
  %192 = sext i32 %191 to i64
  %193 = getelementptr inbounds [100 x double], [100 x double]* %4, i64 0, i64 %192
  %194 = load double, double* %193, align 8
  %195 = fmul double %190, %194
  %196 = fsub double %185, %195
  %197 = fcmp olt double %196, 0.000000e+00
  br i1 %197, label %198, label %255

198:                                              ; preds = %176
  %199 = load i32, i32* %11, align 4
  %200 = sext i32 %199 to i64
  %201 = getelementptr inbounds [100 x double], [100 x double]* %2, i64 0, i64 %200
  %202 = load double, double* %201, align 8
  %203 = fmul double 4.000000e+00, %202
  %204 = load i32, i32* %11, align 4
  %205 = sext i32 %204 to i64
  %206 = getelementptr inbounds [100 x double], [100 x double]* %4, i64 0, i64 %205
  %207 = load double, double* %206, align 8
  %208 = fmul double %203, %207
  %209 = load i32, i32* %11, align 4
  %210 = sext i32 %209 to i64
  %211 = getelementptr inbounds [100 x double], [100 x double]* %3, i64 0, i64 %210
  %212 = load double, double* %211, align 8
  %213 = load i32, i32* %11, align 4
  %214 = sext i32 %213 to i64
  %215 = getelementptr inbounds [100 x double], [100 x double]* %3, i64 0, i64 %214
  %216 = load double, double* %215, align 8
  %217 = fmul double %212, %216
  %218 = fsub double %208, %217
  %219 = call double @sqrt(double %218) #3
  %220 = load i32, i32* %11, align 4
  %221 = sext i32 %220 to i64
  %222 = getelementptr inbounds [100 x double], [100 x double]* %2, i64 0, i64 %221
  %223 = load double, double* %222, align 8
  %224 = fmul double 2.000000e+00, %223
  %225 = fdiv double %219, %224
  store double %225, double* %9, align 8
  %226 = load i32, i32* %11, align 4
  %227 = sext i32 %226 to i64
  %228 = getelementptr inbounds [100 x double], [100 x double]* %3, i64 0, i64 %227
  %229 = load double, double* %228, align 8
  %230 = fneg double %229
  %231 = load i32, i32* %11, align 4
  %232 = sext i32 %231 to i64
  %233 = getelementptr inbounds [100 x double], [100 x double]* %2, i64 0, i64 %232
  %234 = load double, double* %233, align 8
  %235 = fmul double 2.000000e+00, %234
  %236 = fdiv double %230, %235
  %237 = load double, double* %9, align 8
  %238 = load i8, i8* %12, align 1
  %239 = sext i8 %238 to i32
  %240 = load i32, i32* %11, align 4
  %241 = sext i32 %240 to i64
  %242 = getelementptr inbounds [100 x double], [100 x double]* %3, i64 0, i64 %241
  %243 = load double, double* %242, align 8
  %244 = fneg double %243
  %245 = load i32, i32* %11, align 4
  %246 = sext i32 %245 to i64
  %247 = getelementptr inbounds [100 x double], [100 x double]* %2, i64 0, i64 %246
  %248 = load double, double* %247, align 8
  %249 = fmul double 2.000000e+00, %248
  %250 = fdiv double %244, %249
  %251 = load double, double* %9, align 8
  %252 = load i8, i8* %12, align 1
  %253 = sext i8 %252 to i32
  %254 = call i32 (i8*, ...) @printf(i8* getelementptr inbounds ([34 x i8], [34 x i8]* @.str.4, i64 0, i64 0), double %236, double %237, i32 %239, double %250, double %251, i32 %253)
  br label %255

255:                                              ; preds = %198, %176
  br label %256

256:                                              ; preds = %255
  %257 = load i32, i32* %11, align 4
  %258 = add nsw i32 %257, 1
  store i32 %258, i32* %11, align 4
  br label %33

259:                                              ; preds = %33
  ret i32 0
}

declare dso_local i32 @__isoc99_scanf(i8*, ...) #1

; Function Attrs: nounwind
declare dso_local double @sqrt(double) #2

declare dso_local i32 @printf(i8*, ...) #1


!llvm.module.flags = !{!0}
!llvm.ident = !{!1}

!0 = !{i32 1, !"wchar_size", i32 4}
!1 = !{!"clang version 10.0.0-4ubuntu1 "}
