; ModuleID = 'source-C-CXX/26/1418.c'
source_filename = "source-C-CXX/26/1418.c"
target datalayout = "e-m:e-p270:32:32-p271:32:32-p272:64:64-i64:64-f80:128-n8:16:32:64-S128"
target triple = "x86_64-pc-linux-gnu"

@.str = private unnamed_addr constant [3 x i8] c"%d\00", align 1
@.str.1 = private unnamed_addr constant [10 x i8] c"%lf%lf%lf\00", align 1
@.str.2 = private unnamed_addr constant [19 x i8] c"x1=%.5lf;x2=%.5lf\0A\00", align 1
@.str.3 = private unnamed_addr constant [13 x i8] c"x1=x2=%.5lf\0A\00", align 1
@.str.4 = private unnamed_addr constant [34 x i8] c"x1=%.5lf+%.5lf%c;x2=%.5lf-%.5lfi\0A\00", align 1

; Function Attrs: nofree nounwind sspstrong uwtable
define dso_local i32 @main() local_unnamed_addr #0 {
  %1 = alloca [100 x double], align 16
  %2 = alloca [100 x double], align 16
  %3 = alloca [100 x double], align 16
  %4 = alloca i32, align 4
  %5 = bitcast [100 x double]* %1 to i8*
  call void @llvm.lifetime.start.p0i8(i64 800, i8* nonnull %5) #4
  %6 = bitcast [100 x double]* %2 to i8*
  call void @llvm.lifetime.start.p0i8(i64 800, i8* nonnull %6) #4
  %7 = bitcast [100 x double]* %3 to i8*
  call void @llvm.lifetime.start.p0i8(i64 800, i8* nonnull %7) #4
  %8 = bitcast i32* %4 to i8*
  call void @llvm.lifetime.start.p0i8(i64 4, i8* nonnull %8) #4
  %9 = call i32 (i8*, ...) @__isoc99_scanf(i8* getelementptr inbounds ([3 x i8], [3 x i8]* @.str, i64 0, i64 0), i32* nonnull %4)
  %10 = load i32, i32* %4, align 4, !tbaa !5
  %11 = icmp sgt i32 %10, 0
  br i1 %11, label %14, label %102

12:                                               ; preds = %14
  %13 = icmp sgt i32 %21, 0
  br i1 %13, label %24, label %102

14:                                               ; preds = %0, %14
  %15 = phi i64 [ %20, %14 ], [ 0, %0 ]
  %16 = getelementptr inbounds [100 x double], [100 x double]* %1, i64 0, i64 %15
  %17 = getelementptr inbounds [100 x double], [100 x double]* %2, i64 0, i64 %15
  %18 = getelementptr inbounds [100 x double], [100 x double]* %3, i64 0, i64 %15
  %19 = call i32 (i8*, ...) @__isoc99_scanf(i8* getelementptr inbounds ([10 x i8], [10 x i8]* @.str.1, i64 0, i64 0), double* nonnull %16, double* nonnull %17, double* nonnull %18)
  %20 = add nuw nsw i64 %15, 1
  %21 = load i32, i32* %4, align 4, !tbaa !5
  %22 = sext i32 %21 to i64
  %23 = icmp slt i64 %20, %22
  br i1 %23, label %14, label %12, !llvm.loop !9

24:                                               ; preds = %12, %97
  %25 = phi i64 [ %98, %97 ], [ 0, %12 ]
  %26 = getelementptr inbounds [100 x double], [100 x double]* %2, i64 0, i64 %25
  %27 = load double, double* %26, align 8, !tbaa !11
  %28 = fmul double %27, %27
  %29 = getelementptr inbounds [100 x double], [100 x double]* %1, i64 0, i64 %25
  %30 = load double, double* %29, align 8, !tbaa !11
  %31 = fmul double %30, 4.000000e+00
  %32 = getelementptr inbounds [100 x double], [100 x double]* %3, i64 0, i64 %25
  %33 = load double, double* %32, align 8, !tbaa !11
  %34 = fmul double %31, %33
  %35 = fsub double %28, %34
  %36 = fcmp ogt double %35, 0.000000e+00
  br i1 %36, label %37, label %63

37:                                               ; preds = %24
  %38 = call double @sqrt(double %35) #4
  %39 = fsub double %38, %27
  %40 = load double, double* %29, align 8, !tbaa !11
  %41 = fmul double %40, 2.000000e+00
  %42 = fdiv double %39, %41
  %43 = load double, double* %26, align 8, !tbaa !11
  %44 = fneg double %43
  %45 = fmul double %43, %43
  %46 = fmul double %40, 4.000000e+00
  %47 = load double, double* %32, align 8, !tbaa !11
  %48 = fmul double %46, %47
  %49 = fsub double %45, %48
  %50 = call double @sqrt(double %49) #4
  %51 = fsub double %44, %50
  %52 = load double, double* %29, align 8, !tbaa !11
  %53 = fmul double %52, 2.000000e+00
  %54 = fdiv double %51, %53
  %55 = call i32 (i8*, ...) @printf(i8* nonnull dereferenceable(1) getelementptr inbounds ([19 x i8], [19 x i8]* @.str.2, i64 0, i64 0), double %42, double %54)
  %56 = load double, double* %26, align 8, !tbaa !11
  %57 = load double, double* %29, align 8, !tbaa !11
  %58 = load double, double* %32, align 8, !tbaa !11
  %59 = fmul double %56, %56
  %60 = fmul double %57, 4.000000e+00
  %61 = fmul double %60, %58
  %62 = fsub double %59, %61
  br label %63

63:                                               ; preds = %37, %24
  %64 = phi double [ %62, %37 ], [ %35, %24 ]
  %65 = phi double [ %61, %37 ], [ %34, %24 ]
  %66 = phi double [ %59, %37 ], [ %28, %24 ]
  %67 = phi double [ %57, %37 ], [ %30, %24 ]
  %68 = phi double [ %56, %37 ], [ %27, %24 ]
  %69 = fcmp oeq double %64, 0.000000e+00
  br i1 %69, label %70, label %82

70:                                               ; preds = %63
  %71 = fneg double %68
  %72 = fmul double %67, 2.000000e+00
  %73 = fdiv double %71, %72
  %74 = call i32 (i8*, ...) @printf(i8* nonnull dereferenceable(1) getelementptr inbounds ([13 x i8], [13 x i8]* @.str.3, i64 0, i64 0), double %73)
  %75 = load double, double* %26, align 8, !tbaa !11
  %76 = load double, double* %29, align 8, !tbaa !11
  %77 = load double, double* %32, align 8, !tbaa !11
  %78 = fmul double %75, %75
  %79 = fmul double %76, 4.000000e+00
  %80 = fmul double %79, %77
  %81 = fsub double %78, %80
  br label %82

82:                                               ; preds = %70, %63
  %83 = phi double [ %81, %70 ], [ %64, %63 ]
  %84 = phi double [ %80, %70 ], [ %65, %63 ]
  %85 = phi double [ %78, %70 ], [ %66, %63 ]
  %86 = fcmp olt double %83, 0.000000e+00
  br i1 %86, label %87, label %97

87:                                               ; preds = %82
  %88 = fsub double %84, %85
  %89 = call double @sqrt(double %88) #4
  %90 = load double, double* %29, align 8, !tbaa !11
  %91 = fmul double %90, 2.000000e+00
  %92 = fdiv double %89, %91
  %93 = load double, double* %26, align 8, !tbaa !11
  %94 = fneg double %93
  %95 = fdiv double %94, %91
  %96 = call i32 (i8*, ...) @printf(i8* nonnull dereferenceable(1) getelementptr inbounds ([34 x i8], [34 x i8]* @.str.4, i64 0, i64 0), double %95, double %92, i32 105, double %95, double %92, i32 105)
  br label %97

97:                                               ; preds = %82, %87
  %98 = add nuw nsw i64 %25, 1
  %99 = load i32, i32* %4, align 4, !tbaa !5
  %100 = sext i32 %99 to i64
  %101 = icmp slt i64 %98, %100
  br i1 %101, label %24, label %102, !llvm.loop !13

102:                                              ; preds = %97, %0, %12
  call void @llvm.lifetime.end.p0i8(i64 4, i8* nonnull %8) #4
  call void @llvm.lifetime.end.p0i8(i64 800, i8* nonnull %7) #4
  call void @llvm.lifetime.end.p0i8(i64 800, i8* nonnull %6) #4
  call void @llvm.lifetime.end.p0i8(i64 800, i8* nonnull %5) #4
  ret i32 0
}

; Function Attrs: argmemonly mustprogress nofree nosync nounwind willreturn
declare void @llvm.lifetime.start.p0i8(i64 immarg, i8* nocapture) #1

; Function Attrs: nofree nounwind
declare noundef i32 @__isoc99_scanf(i8* nocapture noundef readonly, ...) local_unnamed_addr #2

; Function Attrs: mustprogress nofree nounwind willreturn
declare double @sqrt(double) local_unnamed_addr #3

; Function Attrs: nofree nounwind
declare noundef i32 @printf(i8* nocapture noundef readonly, ...) local_unnamed_addr #2

; Function Attrs: argmemonly mustprogress nofree nosync nounwind willreturn
declare void @llvm.lifetime.end.p0i8(i64 immarg, i8* nocapture) #1


!llvm.module.flags = !{!0, !1, !2, !3}
!llvm.ident = !{!4}

!0 = !{i32 1, !"wchar_size", i32 4}
!1 = !{i32 7, !"PIC Level", i32 2}
!2 = !{i32 7, !"PIE Level", i32 2}
!3 = !{i32 7, !"uwtable", i32 1}
!4 = !{!"clang version 13.0.0"}
!5 = !{!6, !6, i64 0}
!6 = !{!"int", !7, i64 0}
!7 = !{!"omnipotent char", !8, i64 0}
!8 = !{!"Simple C/C++ TBAA"}
!9 = distinct !{!9, !10}
!10 = !{!"llvm.loop.mustprogress"}
!11 = !{!12, !12, i64 0}
!12 = !{!"double", !7, i64 0}
!13 = distinct !{!13, !10}
